target datalayout = "e-m:e-p270:32:32-p271:32:32-p272:64:64-i64:64-i128:128-f80:128-n8:16:32:64-S128"
target triple = "x86_64-pc-linux-gnu"

%struct.mz_zip_archive_tag = type { i64, i64, i32, i32, i32, ptr, ptr, ptr, ptr, ptr, ptr, ptr, ptr }
%struct.mz_zip_writer_add_state = type { ptr, i64, i64 }

; Function Attrs: mustprogress uwtable
define internal noundef i32 @_ZL34mz_zip_writer_add_put_buf_callbackPKviPv(ptr noundef %0, i32 noundef %1, ptr noundef %2) #5 {
  %4 = alloca i32, align 4
  %5 = alloca ptr, align 8
  %6 = alloca i32, align 4
  %7 = alloca ptr, align 8
  %8 = alloca ptr, align 8
  store ptr %0, ptr %5, align 8
  store i32 %1, ptr %6, align 4
  store ptr %2, ptr %7, align 8
  %9 = load ptr, ptr %7, align 8
  store ptr %9, ptr %8, align 8
  %10 = load ptr, ptr %8, align 8
  %11 = getelementptr inbounds %struct.mz_zip_writer_add_state, ptr %10, i32 0, i32 0
  %12 = load ptr, ptr %11, align 8
  %13 = getelementptr inbounds %struct.mz_zip_archive_tag, ptr %12, i32 0, i32 10
  %14 = load ptr, ptr %13, align 8
  %15 = load ptr, ptr %8, align 8
  %16 = getelementptr inbounds %struct.mz_zip_writer_add_state, ptr %15, i32 0, i32 0
  %17 = load ptr, ptr %16, align 8
  %18 = getelementptr inbounds %struct.mz_zip_archive_tag, ptr %17, i32 0, i32 11
  %19 = load ptr, ptr %18, align 8
  %20 = load ptr, ptr %8, align 8
  %21 = getelementptr inbounds %struct.mz_zip_writer_add_state, ptr %20, i32 0, i32 1
  %22 = load i64, ptr %21, align 8
  %23 = load ptr, ptr %5, align 8
  %24 = load i32, ptr %6, align 4
  %25 = sext i32 %24 to i64
  %26 = call noundef i64 %14(ptr noundef %19, i64 noundef %22, ptr noundef %23, i64 noundef %25)
  %27 = trunc i64 %26 to i32
  %28 = load i32, ptr %6, align 4
  %29 = icmp ne i32 %27, %28
  br i1 %29, label %30, label %31

30:                                               ; preds = %3
  store i32 0, ptr %4, align 4
  br label %44

31:                                               ; preds = %3
  %32 = load i32, ptr %6, align 4
  %33 = sext i32 %32 to i64
  %34 = load ptr, ptr %8, align 8
  %35 = getelementptr inbounds %struct.mz_zip_writer_add_state, ptr %34, i32 0, i32 1
  %36 = load i64, ptr %35, align 8
  %37 = add i64 %36, %33
  store i64 %37, ptr %35, align 8
  %38 = load i32, ptr %6, align 4
  %39 = sext i32 %38 to i64
  %40 = load ptr, ptr %8, align 8
  %41 = getelementptr inbounds %struct.mz_zip_writer_add_state, ptr %40, i32 0, i32 2
  %42 = load i64, ptr %41, align 8
  %43 = add i64 %42, %39
  store i64 %43, ptr %41, align 8
  store i32 1, ptr %4, align 4
  br label %44

44:                                               ; preds = %31, %30
  %45 = load i32, ptr %4, align 4
  ret i32 %45
}