; Function Attrs: mustprogress uwtable
define internal noundef i32 @_ZL34mz_zip_writer_add_put_buf_callbackPKviPv(ptr noundef %0, i32 noundef %1, ptr nocapture noundef %2) #9 {
  %4 = load ptr, ptr %2, align 8
  %5 = getelementptr inbounds i8, ptr %4, i64 72
  %6 = load ptr, ptr %5, align 8
  %7 = getelementptr inbounds i8, ptr %4, i64 80
  %8 = load ptr, ptr %7, align 8
  %9 = getelementptr inbounds i8, ptr %2, i64 8
  %10 = load i64, ptr %9, align 8
  %11 = sext i32 %1 to i64
  %12 = tail call noundef i64 %6(ptr noundef %8, i64 noundef %10, ptr noundef %0, i64 noundef %11)
  %13 = trunc i64 %12 to i32
  %.not = icmp eq i32 %13, %1
  br i1 %.not, label %14, label %19

14:                                               ; preds = %3
  %15 = load <2 x i64>, ptr %9, align 8
  %16 = insertelement <2 x i64> poison, i64 %11, i64 0
  %17 = shufflevector <2 x i64> %16, <2 x i64> poison, <2 x i32> zeroinitializer
  %18 = add <2 x i64> %15, %17
  store <2 x i64> %18, ptr %9, align 8
  br label %19

19:                                               ; preds = %3, %14
  %.0 = phi i32 [ 1, %14 ], [ 0, %3 ]
  ret i32 %.0
}